target datalayout = "e-m:e-p270:32:32-p271:32:32-p272:64:64-i64:64-i128:128-f80:128-n8:16:32:64-S128"
target triple = "x86_64-pc-linux-gnu"

%"class.clang::SourceLocation" = type { i32 }
%"class.clang::FileID" = type { i32 }
%"class.llvm::StringRef" = type { ptr, i64 }
%"class.clang::edit::FileOffset" = type { %"class.clang::FileID", i32 }
%"class.clang::edit::Commit" = type { ptr, ptr, ptr, ptr, i8, %"class.llvm::SmallVector.74", %"class.llvm::BumpPtrAllocatorImpl" }
%"class.llvm::SmallVector.74" = type { %"class.llvm::SmallVectorImpl.75", %"struct.llvm::SmallVectorStorage.78" }
%"class.llvm::SmallVectorImpl.75" = type { %"class.llvm::SmallVectorTemplateBase.76" }
%"class.llvm::SmallVectorTemplateBase.76" = type { %"class.llvm::SmallVectorTemplateCommon.77" }
%"class.llvm::SmallVectorTemplateCommon.77" = type { %"class.llvm::SmallVectorBase" }
%"class.llvm::SmallVectorBase" = type { ptr, i32, i32 }
%"struct.llvm::SmallVectorStorage.78" = type { [448 x i8] }
%"class.llvm::BumpPtrAllocatorImpl" = type { ptr, ptr, %"class.llvm::SmallVector", %"class.llvm::SmallVector.1", i64, i64 }
%"class.llvm::SmallVector" = type { %"class.llvm::SmallVectorImpl", %"struct.llvm::SmallVectorStorage" }
%"class.llvm::SmallVectorImpl" = type { %"class.llvm::SmallVectorTemplateBase" }
%"class.llvm::SmallVectorTemplateBase" = type { %"class.llvm::SmallVectorTemplateCommon" }
%"class.llvm::SmallVectorTemplateCommon" = type { %"class.llvm::SmallVectorBase" }
%"struct.llvm::SmallVectorStorage" = type { [32 x i8] }
%"class.llvm::SmallVector.1" = type { %"class.llvm::SmallVectorImpl.2" }
%"class.llvm::SmallVectorImpl.2" = type { %"class.llvm::SmallVectorTemplateBase.3" }
%"class.llvm::SmallVectorTemplateBase.3" = type { %"class.llvm::SmallVectorTemplateCommon.4" }
%"class.llvm::SmallVectorTemplateCommon.4" = type { %"class.llvm::SmallVectorBase" }

; Function Attrs: mustprogress nounwind uwtable
define linkonce_odr hidden noundef i32 @_ZN4llvm9StringRef13compareMemoryEPKcS2_m(ptr noundef %0, ptr noundef %1, i64 noundef %2) #0 comdat align 2 {
  %4 = alloca i32, align 4
  %5 = alloca ptr, align 8
  %6 = alloca ptr, align 8
  %7 = alloca i64, align 8
  store ptr %0, ptr %5, align 8
  store ptr %1, ptr %6, align 8
  store i64 %2, ptr %7, align 8
  %8 = load i64, ptr %7, align 8
  %9 = icmp eq i64 %8, 0
  br i1 %9, label %10, label %11

10:                                               ; preds = %3
  store i32 0, ptr %4, align 4
  br label %16

11:                                               ; preds = %3
  %12 = load ptr, ptr %5, align 8
  %13 = load ptr, ptr %6, align 8
  %14 = load i64, ptr %7, align 8
  %15 = call i32 @memcmp(ptr noundef %12, ptr noundef %13, i64 noundef %14) #7
  store i32 %15, ptr %4, align 4
  br label %16

16:                                               ; preds = %11, %10
  %17 = load i32, ptr %4, align 4
  ret i32 %17
}

; Function Attrs: mustprogress nounwind uwtable
define linkonce_odr hidden void @_ZN4llvm9StringRefC2EPKcm(ptr noundef nonnull align 8 dereferenceable(16) %0, ptr noundef %1, i64 noundef %2) unnamed_addr #0 comdat align 2 {
  %4 = alloca ptr, align 8
  %5 = alloca ptr, align 8
  %6 = alloca i64, align 8
  store ptr %0, ptr %4, align 8
  store ptr %1, ptr %5, align 8
  store i64 %2, ptr %6, align 8
  %7 = load ptr, ptr %4, align 8
  %8 = getelementptr inbounds nuw %"class.llvm::StringRef", ptr %7, i32 0, i32 0
  %9 = load ptr, ptr %5, align 8
  store ptr %9, ptr %8, align 8
  %10 = getelementptr inbounds nuw %"class.llvm::StringRef", ptr %7, i32 0, i32 1
  %11 = load i64, ptr %6, align 8
  store i64 %11, ptr %10, align 8
  ret void
}

; Function Attrs: mustprogress nounwind uwtable
define linkonce_odr noundef nonnull align 8 dereferenceable(8) ptr @_ZSt3minImERKT_S2_S2_(ptr noundef nonnull align 8 dereferenceable(8) %0, ptr noundef nonnull align 8 dereferenceable(8) %1) #0 comdat {
  %3 = alloca ptr, align 8
  %4 = alloca ptr, align 8
  %5 = alloca ptr, align 8
  store ptr %0, ptr %4, align 8
  store ptr %1, ptr %5, align 8
  %6 = load ptr, ptr %5, align 8
  %7 = load i64, ptr %6, align 8
  %8 = load ptr, ptr %4, align 8
  %9 = load i64, ptr %8, align 8
  %10 = icmp ult i64 %7, %9
  br i1 %10, label %11, label %13

11:                                               ; preds = %2
  %12 = load ptr, ptr %5, align 8
  store ptr %12, ptr %3, align 8
  br label %15

13:                                               ; preds = %2
  %14 = load ptr, ptr %4, align 8
  store ptr %14, ptr %3, align 8
  br label %15

15:                                               ; preds = %13, %11
  %16 = load ptr, ptr %3, align 8
  ret ptr %16
}

; Function Attrs: mustprogress nounwind uwtable
define linkonce_odr hidden noundef zeroext i1 @_ZNK4llvm9StringRef11starts_withES0_(ptr noundef nonnull align 8 dereferenceable(16) %0, ptr %1, i64 %2) #0 comdat align 2 {
  %4 = alloca %"class.llvm::StringRef", align 8
  %5 = alloca ptr, align 8
  %6 = getelementptr inbounds nuw { ptr, i64 }, ptr %4, i32 0, i32 0
  store ptr %1, ptr %6, align 8
  %7 = getelementptr inbounds nuw { ptr, i64 }, ptr %4, i32 0, i32 1
  store i64 %2, ptr %7, align 8
  store ptr %0, ptr %5, align 8
  %8 = load ptr, ptr %5, align 8
  %9 = getelementptr inbounds nuw %"class.llvm::StringRef", ptr %8, i32 0, i32 1
  %10 = load i64, ptr %9, align 8
  %11 = getelementptr inbounds nuw %"class.llvm::StringRef", ptr %4, i32 0, i32 1
  %12 = load i64, ptr %11, align 8
  %13 = icmp uge i64 %10, %12
  br i1 %13, label %14, label %23

14:                                               ; preds = %3
  %15 = getelementptr inbounds nuw %"class.llvm::StringRef", ptr %8, i32 0, i32 0
  %16 = load ptr, ptr %15, align 8
  %17 = getelementptr inbounds nuw %"class.llvm::StringRef", ptr %4, i32 0, i32 0
  %18 = load ptr, ptr %17, align 8
  %19 = getelementptr inbounds nuw %"class.llvm::StringRef", ptr %4, i32 0, i32 1
  %20 = load i64, ptr %19, align 8
  %21 = call noundef i32 @_ZN4llvm9StringRef13compareMemoryEPKcS2_m(ptr noundef %16, ptr noundef %18, i64 noundef %20)
  %22 = icmp eq i32 %21, 0
  br label %23

23:                                               ; preds = %14, %3
  %24 = phi i1 [ false, %3 ], [ %22, %14 ]
  ret i1 %24
}

; Function Attrs: mustprogress nounwind uwtable
define linkonce_odr hidden { ptr, i64 } @_ZNK4llvm9StringRef6substrEmm(ptr noundef nonnull align 8 dereferenceable(16) %0, i64 noundef %1, i64 noundef %2) #0 comdat align 2 {
  %4 = alloca %"class.llvm::StringRef", align 8
  %5 = alloca ptr, align 8
  %6 = alloca i64, align 8
  %7 = alloca i64, align 8
  %8 = alloca i64, align 8
  store ptr %0, ptr %5, align 8
  store i64 %1, ptr %6, align 8
  store i64 %2, ptr %7, align 8
  %9 = load ptr, ptr %5, align 8
  %10 = getelementptr inbounds nuw %"class.llvm::StringRef", ptr %9, i32 0, i32 1
  %11 = call noundef nonnull align 8 dereferenceable(8) ptr @_ZSt3minImERKT_S2_S2_(ptr noundef nonnull align 8 dereferenceable(8) %6, ptr noundef nonnull align 8 dereferenceable(8) %10)
  %12 = load i64, ptr %11, align 8
  store i64 %12, ptr %6, align 8
  %13 = getelementptr inbounds nuw %"class.llvm::StringRef", ptr %9, i32 0, i32 0
  %14 = load ptr, ptr %13, align 8
  %15 = load i64, ptr %6, align 8
  %16 = getelementptr inbounds i8, ptr %14, i64 %15
  %17 = getelementptr inbounds nuw %"class.llvm::StringRef", ptr %9, i32 0, i32 1
  %18 = load i64, ptr %17, align 8
  %19 = load i64, ptr %6, align 8
  %20 = sub i64 %18, %19
  store i64 %20, ptr %8, align 8
  %21 = call noundef nonnull align 8 dereferenceable(8) ptr @_ZSt3minImERKT_S2_S2_(ptr noundef nonnull align 8 dereferenceable(8) %7, ptr noundef nonnull align 8 dereferenceable(8) %8)
  %22 = load i64, ptr %21, align 8
  call void @_ZN4llvm9StringRefC2EPKcm(ptr noundef nonnull align 8 dereferenceable(16) %4, ptr noundef %16, i64 noundef %22)
  %23 = load { ptr, i64 }, ptr %4, align 8
  ret { ptr, i64 } %23
}

; Function Attrs: mustprogress nounwind uwtable
define linkonce_odr hidden noundef i32 @_ZNK5clang4edit10FileOffset9getOffsetEv(ptr noundef nonnull align 4 dereferenceable(8) %0) #0 comdat align 2 {
  %2 = alloca ptr, align 8
  store ptr %0, ptr %2, align 8
  %3 = load ptr, ptr %2, align 8
  %4 = getelementptr inbounds nuw %"class.clang::edit::FileOffset", ptr %3, i32 0, i32 1
  %5 = load i32, ptr %4, align 4
  ret i32 %5
}

; Function Attrs: mustprogress nounwind uwtable
define linkonce_odr hidden noundef i64 @_ZNK4llvm9StringRef4sizeEv(ptr noundef nonnull align 8 dereferenceable(16) %0) #0 comdat align 2 {
  %2 = alloca ptr, align 8
  store ptr %0, ptr %2, align 8
  %3 = load ptr, ptr %2, align 8
  %4 = getelementptr inbounds nuw %"class.llvm::StringRef", ptr %3, i32 0, i32 1
  %5 = load i64, ptr %4, align 8
  ret i64 %5
}

; Function Attrs: mustprogress nounwind uwtable
define linkonce_odr hidden i32 @_ZNK5clang4edit10FileOffset6getFIDEv(ptr noundef nonnull align 4 dereferenceable(8) %0) #0 comdat align 2 {
  %2 = alloca %"class.clang::FileID", align 4
  %3 = alloca ptr, align 8
  store ptr %0, ptr %3, align 8
  %4 = load ptr, ptr %3, align 8
  %5 = getelementptr inbounds nuw %"class.clang::edit::FileOffset", ptr %4, i32 0, i32 0
  call void @llvm.memcpy.p0.p0.i64(ptr align 4 %2, ptr align 4 %5, i64 4, i1 false)
  %6 = getelementptr inbounds nuw %"class.clang::FileID", ptr %2, i32 0, i32 0
  %7 = load i32, ptr %6, align 4
  ret i32 %7
}

; Function Attrs: mustprogress nounwind uwtable
define dso_local noundef zeroext i1 @_ZN5clang4edit6Commit14canReplaceTextENS_14SourceLocationEN4llvm9StringRefERNS0_10FileOffsetERj(ptr noundef nonnull align 8 dereferenceable(600) %0, i32 %1, ptr %2, i64 %3, ptr noundef nonnull align 4 dereferenceable(8) %4, ptr noundef nonnull align 4 dereferenceable(4) %5) #0 align 2 {
  %7 = alloca i1, align 1
  %8 = alloca %"class.clang::SourceLocation", align 4
  %9 = alloca %"class.llvm::StringRef", align 8
  %10 = alloca ptr, align 8
  %11 = alloca ptr, align 8
  %12 = alloca ptr, align 8
  %13 = alloca %"class.clang::SourceLocation", align 4
  %14 = alloca i8, align 1
  %15 = alloca %"class.llvm::StringRef", align 8
  %16 = alloca %"class.clang::FileID", align 4
  %17 = alloca %"class.llvm::StringRef", align 8
  %18 = alloca %"class.llvm::StringRef", align 8
  %19 = getelementptr inbounds nuw %"class.clang::SourceLocation", ptr %8, i32 0, i32 0
  store i32 %1, ptr %19, align 4
  %20 = getelementptr inbounds nuw { ptr, i64 }, ptr %9, i32 0, i32 0
  store ptr %2, ptr %20, align 8
  %21 = getelementptr inbounds nuw { ptr, i64 }, ptr %9, i32 0, i32 1
  store i64 %3, ptr %21, align 8
  store ptr %0, ptr %10, align 8
  store ptr %4, ptr %11, align 8
  store ptr %5, ptr %12, align 8
  %22 = load ptr, ptr %10, align 8
  call void @llvm.memcpy.p0.p0.i64(ptr align 4 %13, ptr align 4 %8, i64 4, i1 false)
  %23 = load ptr, ptr %11, align 8
  %24 = getelementptr inbounds nuw %"class.clang::SourceLocation", ptr %13, i32 0, i32 0
  %25 = load i32, ptr %24, align 4
  %26 = call noundef zeroext i1 @_ZN5clang4edit6Commit9canInsertENS_14SourceLocationERNS0_10FileOffsetE(ptr noundef nonnull align 8 dereferenceable(600) %22, i32 %25, ptr noundef nonnull align 4 dereferenceable(8) %23)
  br i1 %26, label %28, label %27

27:                                               ; preds = %6
  store i1 false, ptr %7, align 1
  br label %61

28:                                               ; preds = %6
  store i8 0, ptr %14, align 1
  %29 = getelementptr inbounds nuw %"class.clang::edit::Commit", ptr %22, i32 0, i32 0
  %30 = load ptr, ptr %29, align 8
  %31 = load ptr, ptr %11, align 8
  %32 = call i32 @_ZNK5clang4edit10FileOffset6getFIDEv(ptr noundef nonnull align 4 dereferenceable(8) %31)
  %33 = getelementptr inbounds nuw %"class.clang::FileID", ptr %16, i32 0, i32 0
  store i32 %32, ptr %33, align 4
  %34 = getelementptr inbounds nuw %"class.clang::FileID", ptr %16, i32 0, i32 0
  %35 = load i32, ptr %34, align 4
  %36 = call { ptr, i64 } @_ZNK5clang13SourceManager13getBufferDataENS_6FileIDEPb(ptr noundef nonnull align 8 dereferenceable(696) %30, i32 %35, ptr noundef %14)
  %37 = getelementptr inbounds nuw { ptr, i64 }, ptr %15, i32 0, i32 0
  %38 = extractvalue { ptr, i64 } %36, 0
  store ptr %38, ptr %37, align 8
  %39 = getelementptr inbounds nuw { ptr, i64 }, ptr %15, i32 0, i32 1
  %40 = extractvalue { ptr, i64 } %36, 1
  store i64 %40, ptr %39, align 8
  %41 = load i8, ptr %14, align 1
  %42 = trunc i8 %41 to i1
  br i1 %42, label %43, label %44

43:                                               ; preds = %28
  store i1 false, ptr %7, align 1
  br label %61

44:                                               ; preds = %28
  %45 = call noundef i64 @_ZNK4llvm9StringRef4sizeEv(ptr noundef nonnull align 8 dereferenceable(16) %9)
  %46 = trunc i64 %45 to i32
  %47 = load ptr, ptr %12, align 8
  store i32 %46, ptr %47, align 4
  %48 = load ptr, ptr %11, align 8
  %49 = call noundef i32 @_ZNK5clang4edit10FileOffset9getOffsetEv(ptr noundef nonnull align 4 dereferenceable(8) %48)
  %50 = zext i32 %49 to i64
  %51 = call { ptr, i64 } @_ZNK4llvm9StringRef6substrEmm(ptr noundef nonnull align 8 dereferenceable(16) %15, i64 noundef %50, i64 noundef -1)
  %52 = getelementptr inbounds nuw { ptr, i64 }, ptr %17, i32 0, i32 0
  %53 = extractvalue { ptr, i64 } %51, 0
  store ptr %53, ptr %52, align 8
  %54 = getelementptr inbounds nuw { ptr, i64 }, ptr %17, i32 0, i32 1
  %55 = extractvalue { ptr, i64 } %51, 1
  store i64 %55, ptr %54, align 8
  call void @llvm.memcpy.p0.p0.i64(ptr align 8 %18, ptr align 8 %9, i64 16, i1 false)
  %56 = getelementptr inbounds nuw { ptr, i64 }, ptr %18, i32 0, i32 0
  %57 = load ptr, ptr %56, align 8
  %58 = getelementptr inbounds nuw { ptr, i64 }, ptr %18, i32 0, i32 1
  %59 = load i64, ptr %58, align 8
  %60 = call noundef zeroext i1 @_ZNK4llvm9StringRef11starts_withES0_(ptr noundef nonnull align 8 dereferenceable(16) %17, ptr %57, i64 %59)
  store i1 %60, ptr %7, align 1
  br label %61

61:                                               ; preds = %44, %43, %27
  %62 = load i1, ptr %7, align 1
  ret i1 %62
}