; Function Attrs: mustprogress nounwind uwtable
define dso_local noundef zeroext i1 @_ZN5clang4edit6Commit14canReplaceTextENS_14SourceLocationEN4llvm9StringRefERNS0_10FileOffsetERj(ptr noundef nonnull align 8 dereferenceable(600) %0, i32 %1, ptr nocapture readonly %2, i64 %3, ptr nocapture noundef nonnull align 4 dereferenceable(8) %4, ptr nocapture noundef nonnull writeonly align 4 dereferenceable(4) %5) local_unnamed_addr #0 align 2 {
  %7 = alloca i8, align 1
  %8 = tail call noundef zeroext i1 @_ZN5clang4edit6Commit9canInsertENS_14SourceLocationERNS0_10FileOffsetE(ptr noundef nonnull align 8 dereferenceable(600) %0, i32 %1, ptr noundef nonnull align 4 dereferenceable(8) %4)
  br i1 %8, label %9, label %_ZNK4llvm9StringRef11starts_withES0_.exit

9:                                                ; preds = %6
  store i8 0, ptr %7, align 1
  %10 = load ptr, ptr %0, align 8
  %.sroa.0.0.copyload.i = load i32, ptr %4, align 4
  %11 = call { ptr, i64 } @_ZNK5clang13SourceManager13getBufferDataENS_6FileIDEPb(ptr noundef nonnull align 8 dereferenceable(696) %10, i32 %.sroa.0.0.copyload.i, ptr noundef nonnull %7) #7
  %12 = load i8, ptr %7, align 1
  %13 = trunc i8 %12 to i1
  br i1 %13, label %_ZNK4llvm9StringRef11starts_withES0_.exit, label %14

14:                                               ; preds = %9
  %15 = extractvalue { ptr, i64 } %11, 1
  %16 = extractvalue { ptr, i64 } %11, 0
  %17 = trunc i64 %3 to i32
  store i32 %17, ptr %5, align 4
  %18 = getelementptr inbounds nuw i8, ptr %4, i64 4
  %19 = load i32, ptr %18, align 4
  %20 = zext i32 %19 to i64
  %.sroa.speculated5.i = call i64 @llvm.umin.i64(i64 %15, i64 %20)
  %21 = getelementptr inbounds i8, ptr %16, i64 %.sroa.speculated5.i
  %22 = sub i64 %15, %.sroa.speculated5.i
  %.not.i = icmp ult i64 %22, %3
  br i1 %.not.i, label %_ZNK4llvm9StringRef11starts_withES0_.exit, label %23

23:                                               ; preds = %14
  %24 = icmp eq i64 %3, 0
  br i1 %24, label %_ZNK4llvm9StringRef11starts_withES0_.exit, label %25

25:                                               ; preds = %23
  %bcmp.i = call i32 @bcmp(ptr %21, ptr %2, i64 %3)
  %26 = icmp eq i32 %bcmp.i, 0
  br label %_ZNK4llvm9StringRef11starts_withES0_.exit

_ZNK4llvm9StringRef11starts_withES0_.exit:        ; preds = %25, %23, %14, %9, %6
  %.0 = phi i1 [ false, %6 ], [ false, %9 ], [ false, %14 ], [ %26, %25 ], [ true, %23 ]
  ret i1 %.0
}